; ModuleID = '62/3555.c'
source_filename = "62/3555.c"
target datalayout = "e-m:e-p270:32:32-p271:32:32-p272:64:64-i64:64-f80:128-n8:16:32:64-S128"
target triple = "x86_64-pc-linux-gnu"

@.str = private unnamed_addr constant [3 x i8] c"%s\00", align 1

; Function Attrs: noinline nounwind uwtable
define dso_local i32 @main() #0 {
  %1 = alloca i32, align 4
  %2 = alloca [300 x i8], align 16
  %3 = alloca i32, align 4
  %4 = alloca i32, align 4
  %5 = alloca i32, align 4
  store i32 0, i32* %1, align 4
  %6 = getelementptr inbounds [300 x i8], [300 x i8]* %2, i64 0, i64 0
  %7 = call i32 (i8*, ...) bitcast (i32 (...)* @gets to i32 (i8*, ...)*)(i8* %6)
  store i32 200, i32* %3, align 4
  br label %8

8:                                                ; preds = %66, %0
  %9 = load i32, i32* %3, align 4
  %10 = icmp sgt i32 %9, 0
  br i1 %10, label %11, label %69

11:                                               ; preds = %8
  store i32 0, i32* %4, align 4
  br label %12

12:                                               ; preds = %62, %11
  %13 = load i32, i32* %4, align 4
  %14 = sext i32 %13 to i64
  %15 = getelementptr inbounds [300 x i8], [300 x i8]* %2, i64 0, i64 0
  %16 = call i64 @strlen(i8* %15) #3
  %17 = icmp ult i64 %14, %16
  br i1 %17, label %18, label %65

18:                                               ; preds = %12
  %19 = load i32, i32* %4, align 4
  %20 = sext i32 %19 to i64
  %21 = getelementptr inbounds [300 x i8], [300 x i8]* %2, i64 0, i64 %20
  %22 = load i8, i8* %21, align 1
  %23 = sext i8 %22 to i32
  %24 = icmp eq i32 %23, 32
  br i1 %24, label %25, label %61

25:                                               ; preds = %18
  %26 = load i32, i32* %4, align 4
  %27 = add nsw i32 %26, 1
  %28 = sext i32 %27 to i64
  %29 = getelementptr inbounds [300 x i8], [300 x i8]* %2, i64 0, i64 %28
  %30 = load i8, i8* %29, align 1
  %31 = sext i8 %30 to i32
  %32 = icmp eq i32 %31, 32
  br i1 %32, label %33, label %60

33:                                               ; preds = %25
  %34 = load i32, i32* %4, align 4
  %35 = add nsw i32 %34, 1
  store i32 %35, i32* %5, align 4
  br label %36

36:                                               ; preds = %52, %33
  %37 = load i32, i32* %5, align 4
  %38 = sext i32 %37 to i64
  %39 = getelementptr inbounds [300 x i8], [300 x i8]* %2, i64 0, i64 0
  %40 = call i64 @strlen(i8* %39) #3
  %41 = sub i64 %40, 1
  %42 = icmp ult i64 %38, %41
  br i1 %42, label %43, label %55

43:                                               ; preds = %36
  %44 = load i32, i32* %5, align 4
  %45 = add nsw i32 %44, 1
  %46 = sext i32 %45 to i64
  %47 = getelementptr inbounds [300 x i8], [300 x i8]* %2, i64 0, i64 %46
  %48 = load i8, i8* %47, align 1
  %49 = load i32, i32* %5, align 4
  %50 = sext i32 %49 to i64
  %51 = getelementptr inbounds [300 x i8], [300 x i8]* %2, i64 0, i64 %50
  store i8 %48, i8* %51, align 1
  br label %52

52:                                               ; preds = %43
  %53 = load i32, i32* %5, align 4
  %54 = add nsw i32 %53, 1
  store i32 %54, i32* %5, align 4
  br label %36

55:                                               ; preds = %36
  %56 = getelementptr inbounds [300 x i8], [300 x i8]* %2, i64 0, i64 0
  %57 = call i64 @strlen(i8* %56) #3
  %58 = sub i64 %57, 1
  %59 = getelementptr inbounds [300 x i8], [300 x i8]* %2, i64 0, i64 %58
  store i8 0, i8* %59, align 1
  br label %60

60:                                               ; preds = %55, %25
  br label %61

61:                                               ; preds = %60, %18
  br label %62

62:                                               ; preds = %61
  %63 = load i32, i32* %4, align 4
  %64 = add nsw i32 %63, 1
  store i32 %64, i32* %4, align 4
  br label %12

65:                                               ; preds = %12
  br label %66

66:                                               ; preds = %65
  %67 = load i32, i32* %3, align 4
  %68 = add nsw i32 %67, -1
  store i32 %68, i32* %3, align 4
  br label %8

69:                                               ; preds = %8
  %70 = getelementptr inbounds [300 x i8], [300 x i8]* %2, i64 0, i64 0
  %71 = call i32 (i8*, ...) @printf(i8* getelementptr inbounds ([3 x i8], [3 x i8]* @.str, i64 0, i64 0), i8* %70)
  ret i32 0
}

declare dso_local i32 @gets(...) #1

; Function Attrs: nounwind readonly
declare dso_local i64 @strlen(i8*) #2

declare dso_local i32 @printf(i8*, ...) #1


!llvm.module.flags = !{!0}
!llvm.ident = !{!1}

!0 = !{i32 1, !"wchar_size", i32 4}
!1 = !{!"clang version 10.0.0-4ubuntu1 "}
